target datalayout = "e-m:e-p270:32:32-p271:32:32-p272:64:64-i64:64-i128:128-f80:128-n8:16:32:64-S128"
target triple = "x86_64-unknown-linux-gnu"

%"class.OpenColorIO_v2_4dev::OpCPU" = type { ptr }
%"class.OpenColorIO_v2_4dev::(anonymous namespace)::MatrixRenderer" = type { %"class.OpenColorIO_v2_4dev::OpCPU", [4 x float], [4 x float], [4 x float], [4 x float] }

; Function Attrs: mustprogress nounwind uwtable
define internal void @_ZNK19OpenColorIO_v2_4dev12_GLOBAL__N_114MatrixRenderer5applyEPKvPvl(ptr noundef nonnull align 8 dereferenceable(72) %this, ptr noundef %inImg, ptr noundef %outImg, i64 noundef %numPixels) unnamed_addr #16 align 2 {
entry:
  %__p.addr.i = alloca ptr, align 8
  %__a.addr.i116 = alloca <4 x float>, align 16
  %__a.addr.i113 = alloca <4 x float>, align 16
  %__b.addr.i114 = alloca <4 x float>, align 16
  %__a.addr.i110 = alloca <4 x float>, align 16
  %__b.addr.i111 = alloca <4 x float>, align 16
  %__a.addr.i108 = alloca <4 x float>, align 16
  %__b.addr.i109 = alloca <4 x float>, align 16
  %__a.addr.i105 = alloca <4 x float>, align 16
  %__b.addr.i106 = alloca <4 x float>, align 16
  %__a.addr.i102 = alloca <4 x float>, align 16
  %__b.addr.i103 = alloca <4 x float>, align 16
  %__a.addr.i99 = alloca <4 x float>, align 16
  %__b.addr.i100 = alloca <4 x float>, align 16
  %__a.addr.i = alloca <4 x float>, align 16
  %__b.addr.i = alloca <4 x float>, align 16
  %__z.addr.i90 = alloca float, align 4
  %__y.addr.i91 = alloca float, align 4
  %__x.addr.i92 = alloca float, align 4
  %__w.addr.i93 = alloca float, align 4
  %.compoundliteral.i94 = alloca <4 x float>, align 16
  %__z.addr.i81 = alloca float, align 4
  %__y.addr.i82 = alloca float, align 4
  %__x.addr.i83 = alloca float, align 4
  %__w.addr.i84 = alloca float, align 4
  %.compoundliteral.i85 = alloca <4 x float>, align 16
  %__z.addr.i72 = alloca float, align 4
  %__y.addr.i73 = alloca float, align 4
  %__x.addr.i74 = alloca float, align 4
  %__w.addr.i75 = alloca float, align 4
  %.compoundliteral.i76 = alloca <4 x float>, align 16
  %__z.addr.i = alloca float, align 4
  %__y.addr.i = alloca float, align 4
  %__x.addr.i = alloca float, align 4
  %__w.addr.i66 = alloca float, align 4
  %.compoundliteral.i67 = alloca <4 x float>, align 16
  %__w.addr.i60 = alloca float, align 4
  %.compoundliteral.i61 = alloca <4 x float>, align 16
  %__w.addr.i54 = alloca float, align 4
  %.compoundliteral.i55 = alloca <4 x float>, align 16
  %__w.addr.i48 = alloca float, align 4
  %.compoundliteral.i49 = alloca <4 x float>, align 16
  %__w.addr.i = alloca float, align 4
  %.compoundliteral.i = alloca <4 x float>, align 16
  %this.addr = alloca ptr, align 8
  %inImg.addr = alloca ptr, align 8
  %outImg.addr = alloca ptr, align 8
  %numPixels.addr = alloca i64, align 8
  %in = alloca ptr, align 8
  %out = alloca ptr, align 8
  %m0 = alloca <4 x float>, align 16
  %m1 = alloca <4 x float>, align 16
  %m2 = alloca <4 x float>, align 16
  %m3 = alloca <4 x float>, align 16
  %idx = alloca i64, align 8
  %r = alloca <4 x float>, align 16
  %g = alloca <4 x float>, align 16
  %b = alloca <4 x float>, align 16
  %a = alloca <4 x float>, align 16
  %rm0 = alloca <4 x float>, align 16
  %gm1 = alloca <4 x float>, align 16
  %bm2 = alloca <4 x float>, align 16
  %am3 = alloca <4 x float>, align 16
  %img = alloca <4 x float>, align 16
  store ptr %this, ptr %this.addr, align 8
  store ptr %inImg, ptr %inImg.addr, align 8
  store ptr %outImg, ptr %outImg.addr, align 8
  store i64 %numPixels, ptr %numPixels.addr, align 8
  %this1 = load ptr, ptr %this.addr, align 8
  %0 = load ptr, ptr %inImg.addr, align 8
  store ptr %0, ptr %in, align 8
  %1 = load ptr, ptr %outImg.addr, align 8
  store ptr %1, ptr %out, align 8
  %m_column1 = getelementptr inbounds %"class.OpenColorIO_v2_4dev::(anonymous namespace)::MatrixRenderer", ptr %this1, i32 0, i32 1
  %arrayidx = getelementptr inbounds [4 x float], ptr %m_column1, i64 0, i64 3
  %2 = load float, ptr %arrayidx, align 4
  %m_column12 = getelementptr inbounds %"class.OpenColorIO_v2_4dev::(anonymous namespace)::MatrixRenderer", ptr %this1, i32 0, i32 1
  %arrayidx3 = getelementptr inbounds [4 x float], ptr %m_column12, i64 0, i64 2
  %3 = load float, ptr %arrayidx3, align 8
  %m_column14 = getelementptr inbounds %"class.OpenColorIO_v2_4dev::(anonymous namespace)::MatrixRenderer", ptr %this1, i32 0, i32 1
  %arrayidx5 = getelementptr inbounds [4 x float], ptr %m_column14, i64 0, i64 1
  %4 = load float, ptr %arrayidx5, align 4
  %m_column16 = getelementptr inbounds %"class.OpenColorIO_v2_4dev::(anonymous namespace)::MatrixRenderer", ptr %this1, i32 0, i32 1
  %arrayidx7 = getelementptr inbounds [4 x float], ptr %m_column16, i64 0, i64 0
  %5 = load float, ptr %arrayidx7, align 8
  store float %2, ptr %__z.addr.i90, align 4
  store float %3, ptr %__y.addr.i91, align 4
  store float %4, ptr %__x.addr.i92, align 4
  store float %5, ptr %__w.addr.i93, align 4
  %6 = load float, ptr %__w.addr.i93, align 4
  %vecinit.i95 = insertelement <4 x float> undef, float %6, i32 0
  %7 = load float, ptr %__x.addr.i92, align 4
  %vecinit1.i96 = insertelement <4 x float> %vecinit.i95, float %7, i32 1
  %8 = load float, ptr %__y.addr.i91, align 4
  %vecinit2.i97 = insertelement <4 x float> %vecinit1.i96, float %8, i32 2
  %9 = load float, ptr %__z.addr.i90, align 4
  %vecinit3.i98 = insertelement <4 x float> %vecinit2.i97, float %9, i32 3
  store <4 x float> %vecinit3.i98, ptr %.compoundliteral.i94, align 16
  %10 = load <4 x float>, ptr %.compoundliteral.i94, align 16
  store <4 x float> %10, ptr %m0, align 16
  %m_column2 = getelementptr inbounds %"class.OpenColorIO_v2_4dev::(anonymous namespace)::MatrixRenderer", ptr %this1, i32 0, i32 2
  %arrayidx8 = getelementptr inbounds [4 x float], ptr %m_column2, i64 0, i64 3
  %11 = load float, ptr %arrayidx8, align 4
  %m_column29 = getelementptr inbounds %"class.OpenColorIO_v2_4dev::(anonymous namespace)::MatrixRenderer", ptr %this1, i32 0, i32 2
  %arrayidx10 = getelementptr inbounds [4 x float], ptr %m_column29, i64 0, i64 2
  %12 = load float, ptr %arrayidx10, align 8
  %m_column211 = getelementptr inbounds %"class.OpenColorIO_v2_4dev::(anonymous namespace)::MatrixRenderer", ptr %this1, i32 0, i32 2
  %arrayidx12 = getelementptr inbounds [4 x float], ptr %m_column211, i64 0, i64 1
  %13 = load float, ptr %arrayidx12, align 4
  %m_column213 = getelementptr inbounds %"class.OpenColorIO_v2_4dev::(anonymous namespace)::MatrixRenderer", ptr %this1, i32 0, i32 2
  %arrayidx14 = getelementptr inbounds [4 x float], ptr %m_column213, i64 0, i64 0
  %14 = load float, ptr %arrayidx14, align 8
  store float %11, ptr %__z.addr.i81, align 4
  store float %12, ptr %__y.addr.i82, align 4
  store float %13, ptr %__x.addr.i83, align 4
  store float %14, ptr %__w.addr.i84, align 4
  %15 = load float, ptr %__w.addr.i84, align 4
  %vecinit.i86 = insertelement <4 x float> undef, float %15, i32 0
  %16 = load float, ptr %__x.addr.i83, align 4
  %vecinit1.i87 = insertelement <4 x float> %vecinit.i86, float %16, i32 1
  %17 = load float, ptr %__y.addr.i82, align 4
  %vecinit2.i88 = insertelement <4 x float> %vecinit1.i87, float %17, i32 2
  %18 = load float, ptr %__z.addr.i81, align 4
  %vecinit3.i89 = insertelement <4 x float> %vecinit2.i88, float %18, i32 3
  store <4 x float> %vecinit3.i89, ptr %.compoundliteral.i85, align 16
  %19 = load <4 x float>, ptr %.compoundliteral.i85, align 16
  store <4 x float> %19, ptr %m1, align 16
  %m_column3 = getelementptr inbounds %"class.OpenColorIO_v2_4dev::(anonymous namespace)::MatrixRenderer", ptr %this1, i32 0, i32 3
  %arrayidx16 = getelementptr inbounds [4 x float], ptr %m_column3, i64 0, i64 3
  %20 = load float, ptr %arrayidx16, align 4
  %m_column317 = getelementptr inbounds %"class.OpenColorIO_v2_4dev::(anonymous namespace)::MatrixRenderer", ptr %this1, i32 0, i32 3
  %arrayidx18 = getelementptr inbounds [4 x float], ptr %m_column317, i64 0, i64 2
  %21 = load float, ptr %arrayidx18, align 8
  %m_column319 = getelementptr inbounds %"class.OpenColorIO_v2_4dev::(anonymous namespace)::MatrixRenderer", ptr %this1, i32 0, i32 3
  %arrayidx20 = getelementptr inbounds [4 x float], ptr %m_column319, i64 0, i64 1
  %22 = load float, ptr %arrayidx20, align 4
  %m_column321 = getelementptr inbounds %"class.OpenColorIO_v2_4dev::(anonymous namespace)::MatrixRenderer", ptr %this1, i32 0, i32 3
  %arrayidx22 = getelementptr inbounds [4 x float], ptr %m_column321, i64 0, i64 0
  %23 = load float, ptr %arrayidx22, align 8
  store float %20, ptr %__z.addr.i72, align 4
  store float %21, ptr %__y.addr.i73, align 4
  store float %22, ptr %__x.addr.i74, align 4
  store float %23, ptr %__w.addr.i75, align 4
  %24 = load float, ptr %__w.addr.i75, align 4
  %vecinit.i77 = insertelement <4 x float> undef, float %24, i32 0
  %25 = load float, ptr %__x.addr.i74, align 4
  %vecinit1.i78 = insertelement <4 x float> %vecinit.i77, float %25, i32 1
  %26 = load float, ptr %__y.addr.i73, align 4
  %vecinit2.i79 = insertelement <4 x float> %vecinit1.i78, float %26, i32 2
  %27 = load float, ptr %__z.addr.i72, align 4
  %vecinit3.i80 = insertelement <4 x float> %vecinit2.i79, float %27, i32 3
  store <4 x float> %vecinit3.i80, ptr %.compoundliteral.i76, align 16
  %28 = load <4 x float>, ptr %.compoundliteral.i76, align 16
  store <4 x float> %28, ptr %m2, align 16
  %m_column4 = getelementptr inbounds %"class.OpenColorIO_v2_4dev::(anonymous namespace)::MatrixRenderer", ptr %this1, i32 0, i32 4
  %arrayidx24 = getelementptr inbounds [4 x float], ptr %m_column4, i64 0, i64 3
  %29 = load float, ptr %arrayidx24, align 4
  %m_column425 = getelementptr inbounds %"class.OpenColorIO_v2_4dev::(anonymous namespace)::MatrixRenderer", ptr %this1, i32 0, i32 4
  %arrayidx26 = getelementptr inbounds [4 x float], ptr %m_column425, i64 0, i64 2
  %30 = load float, ptr %arrayidx26, align 8
  %m_column427 = getelementptr inbounds %"class.OpenColorIO_v2_4dev::(anonymous namespace)::MatrixRenderer", ptr %this1, i32 0, i32 4
  %arrayidx28 = getelementptr inbounds [4 x float], ptr %m_column427, i64 0, i64 1
  %31 = load float, ptr %arrayidx28, align 4
  %m_column429 = getelementptr inbounds %"class.OpenColorIO_v2_4dev::(anonymous namespace)::MatrixRenderer", ptr %this1, i32 0, i32 4
  %arrayidx30 = getelementptr inbounds [4 x float], ptr %m_column429, i64 0, i64 0
  %32 = load float, ptr %arrayidx30, align 8
  store float %29, ptr %__z.addr.i, align 4
  store float %30, ptr %__y.addr.i, align 4
  store float %31, ptr %__x.addr.i, align 4
  store float %32, ptr %__w.addr.i66, align 4
  %33 = load float, ptr %__w.addr.i66, align 4
  %vecinit.i68 = insertelement <4 x float> undef, float %33, i32 0
  %34 = load float, ptr %__x.addr.i, align 4
  %vecinit1.i69 = insertelement <4 x float> %vecinit.i68, float %34, i32 1
  %35 = load float, ptr %__y.addr.i, align 4
  %vecinit2.i70 = insertelement <4 x float> %vecinit1.i69, float %35, i32 2
  %36 = load float, ptr %__z.addr.i, align 4
  %vecinit3.i71 = insertelement <4 x float> %vecinit2.i70, float %36, i32 3
  store <4 x float> %vecinit3.i71, ptr %.compoundliteral.i67, align 16
  %37 = load <4 x float>, ptr %.compoundliteral.i67, align 16
  store <4 x float> %37, ptr %m3, align 16
  store i64 0, ptr %idx, align 8
  br label %for.cond

for.cond:                                         ; preds = %for.inc, %entry
  %38 = load i64, ptr %idx, align 8
  %39 = load i64, ptr %numPixels.addr, align 8
  %cmp = icmp slt i64 %38, %39
  br i1 %cmp, label %for.body, label %for.end

for.body:                                         ; preds = %for.cond
  %40 = load ptr, ptr %in, align 8
  %arrayidx32 = getelementptr inbounds float, ptr %40, i64 0
  %41 = load float, ptr %arrayidx32, align 4
  store float %41, ptr %__w.addr.i60, align 4
  %42 = load float, ptr %__w.addr.i60, align 4
  %vecinit.i62 = insertelement <4 x float> undef, float %42, i32 0
  %43 = load float, ptr %__w.addr.i60, align 4
  %vecinit1.i63 = insertelement <4 x float> %vecinit.i62, float %43, i32 1
  %44 = load float, ptr %__w.addr.i60, align 4
  %vecinit2.i64 = insertelement <4 x float> %vecinit1.i63, float %44, i32 2
  %45 = load float, ptr %__w.addr.i60, align 4
  %vecinit3.i65 = insertelement <4 x float> %vecinit2.i64, float %45, i32 3
  store <4 x float> %vecinit3.i65, ptr %.compoundliteral.i61, align 16
  %46 = load <4 x float>, ptr %.compoundliteral.i61, align 16
  store <4 x float> %46, ptr %r, align 16
  %47 = load ptr, ptr %in, align 8
  %arrayidx34 = getelementptr inbounds float, ptr %47, i64 1
  %48 = load float, ptr %arrayidx34, align 4
  store float %48, ptr %__w.addr.i54, align 4
  %49 = load float, ptr %__w.addr.i54, align 4
  %vecinit.i56 = insertelement <4 x float> undef, float %49, i32 0
  %50 = load float, ptr %__w.addr.i54, align 4
  %vecinit1.i57 = insertelement <4 x float> %vecinit.i56, float %50, i32 1
  %51 = load float, ptr %__w.addr.i54, align 4
  %vecinit2.i58 = insertelement <4 x float> %vecinit1.i57, float %51, i32 2
  %52 = load float, ptr %__w.addr.i54, align 4
  %vecinit3.i59 = insertelement <4 x float> %vecinit2.i58, float %52, i32 3
  store <4 x float> %vecinit3.i59, ptr %.compoundliteral.i55, align 16
  %53 = load <4 x float>, ptr %.compoundliteral.i55, align 16
  store <4 x float> %53, ptr %g, align 16
  %54 = load ptr, ptr %in, align 8
  %arrayidx36 = getelementptr inbounds float, ptr %54, i64 2
  %55 = load float, ptr %arrayidx36, align 4
  store float %55, ptr %__w.addr.i48, align 4
  %56 = load float, ptr %__w.addr.i48, align 4
  %vecinit.i50 = insertelement <4 x float> undef, float %56, i32 0
  %57 = load float, ptr %__w.addr.i48, align 4
  %vecinit1.i51 = insertelement <4 x float> %vecinit.i50, float %57, i32 1
  %58 = load float, ptr %__w.addr.i48, align 4
  %vecinit2.i52 = insertelement <4 x float> %vecinit1.i51, float %58, i32 2
  %59 = load float, ptr %__w.addr.i48, align 4
  %vecinit3.i53 = insertelement <4 x float> %vecinit2.i52, float %59, i32 3
  store <4 x float> %vecinit3.i53, ptr %.compoundliteral.i49, align 16
  %60 = load <4 x float>, ptr %.compoundliteral.i49, align 16
  store <4 x float> %60, ptr %b, align 16
  %61 = load ptr, ptr %in, align 8
  %arrayidx38 = getelementptr inbounds float, ptr %61, i64 3
  %62 = load float, ptr %arrayidx38, align 4
  store float %62, ptr %__w.addr.i, align 4
  %63 = load float, ptr %__w.addr.i, align 4
  %vecinit.i = insertelement <4 x float> undef, float %63, i32 0
  %64 = load float, ptr %__w.addr.i, align 4
  %vecinit1.i = insertelement <4 x float> %vecinit.i, float %64, i32 1
  %65 = load float, ptr %__w.addr.i, align 4
  %vecinit2.i = insertelement <4 x float> %vecinit1.i, float %65, i32 2
  %66 = load float, ptr %__w.addr.i, align 4
  %vecinit3.i = insertelement <4 x float> %vecinit2.i, float %66, i32 3
  store <4 x float> %vecinit3.i, ptr %.compoundliteral.i, align 16
  %67 = load <4 x float>, ptr %.compoundliteral.i, align 16
  store <4 x float> %67, ptr %a, align 16
  %68 = load <4 x float>, ptr %m0, align 16
  %69 = load <4 x float>, ptr %r, align 16
  store <4 x float> %68, ptr %__a.addr.i105, align 16
  store <4 x float> %69, ptr %__b.addr.i106, align 16
  %70 = load <4 x float>, ptr %__a.addr.i105, align 16
  %71 = load <4 x float>, ptr %__b.addr.i106, align 16
  %mul.i107 = fmul <4 x float> %70, %71
  store <4 x float> %mul.i107, ptr %rm0, align 16
  %72 = load <4 x float>, ptr %m1, align 16
  %73 = load <4 x float>, ptr %g, align 16
  store <4 x float> %72, ptr %__a.addr.i102, align 16
  store <4 x float> %73, ptr %__b.addr.i103, align 16
  %74 = load <4 x float>, ptr %__a.addr.i102, align 16
  %75 = load <4 x float>, ptr %__b.addr.i103, align 16
  %mul.i104 = fmul <4 x float> %74, %75
  store <4 x float> %mul.i104, ptr %gm1, align 16
  %76 = load <4 x float>, ptr %m2, align 16
  %77 = load <4 x float>, ptr %b, align 16
  store <4 x float> %76, ptr %__a.addr.i99, align 16
  store <4 x float> %77, ptr %__b.addr.i100, align 16
  %78 = load <4 x float>, ptr %__a.addr.i99, align 16
  %79 = load <4 x float>, ptr %__b.addr.i100, align 16
  %mul.i101 = fmul <4 x float> %78, %79
  store <4 x float> %mul.i101, ptr %bm2, align 16
  %80 = load <4 x float>, ptr %m3, align 16
  %81 = load <4 x float>, ptr %a, align 16
  store <4 x float> %80, ptr %__a.addr.i, align 16
  store <4 x float> %81, ptr %__b.addr.i, align 16
  %82 = load <4 x float>, ptr %__a.addr.i, align 16
  %83 = load <4 x float>, ptr %__b.addr.i, align 16
  %mul.i = fmul <4 x float> %82, %83
  store <4 x float> %mul.i, ptr %am3, align 16
  %84 = load <4 x float>, ptr %rm0, align 16
  %85 = load <4 x float>, ptr %gm1, align 16
  store <4 x float> %84, ptr %__a.addr.i113, align 16
  store <4 x float> %85, ptr %__b.addr.i114, align 16
  %86 = load <4 x float>, ptr %__a.addr.i113, align 16
  %87 = load <4 x float>, ptr %__b.addr.i114, align 16
  %add.i115 = fadd <4 x float> %86, %87
  %88 = load <4 x float>, ptr %bm2, align 16
  %89 = load <4 x float>, ptr %am3, align 16
  store <4 x float> %88, ptr %__a.addr.i110, align 16
  store <4 x float> %89, ptr %__b.addr.i111, align 16
  %90 = load <4 x float>, ptr %__a.addr.i110, align 16
  %91 = load <4 x float>, ptr %__b.addr.i111, align 16
  %add.i112 = fadd <4 x float> %90, %91
  store <4 x float> %add.i115, ptr %__a.addr.i108, align 16
  store <4 x float> %add.i112, ptr %__b.addr.i109, align 16
  %92 = load <4 x float>, ptr %__a.addr.i108, align 16
  %93 = load <4 x float>, ptr %__b.addr.i109, align 16
  %add.i = fadd <4 x float> %92, %93
  store <4 x float> %add.i, ptr %img, align 16
  %94 = load ptr, ptr %out, align 8
  %95 = load <4 x float>, ptr %img, align 16
  store ptr %94, ptr %__p.addr.i, align 8
  store <4 x float> %95, ptr %__a.addr.i116, align 16
  %96 = load <4 x float>, ptr %__a.addr.i116, align 16
  %97 = load ptr, ptr %__p.addr.i, align 8
  store <4 x float> %96, ptr %97, align 1
  %98 = load ptr, ptr %in, align 8
  %add.ptr = getelementptr inbounds float, ptr %98, i64 4
  store ptr %add.ptr, ptr %in, align 8
  %99 = load ptr, ptr %out, align 8
  %add.ptr47 = getelementptr inbounds float, ptr %99, i64 4
  store ptr %add.ptr47, ptr %out, align 8
  br label %for.inc

for.inc:                                          ; preds = %for.body
  %100 = load i64, ptr %idx, align 8
  %inc = add nsw i64 %100, 1
  store i64 %inc, ptr %idx, align 8
  br label %for.cond, !llvm.loop !8

for.end:                                          ; preds = %for.cond
  ret void
}